; Function Attrs: nounwind uwtable
define void @Gia_ManQuantSetSuppAnd(ptr noundef readonly captures(none) %0, ptr noundef %1) local_unnamed_addr #2 {
  %3 = getelementptr i8, ptr %0, i64 32
  %.val18 = load ptr, ptr %3, align 8, !tbaa !30
  %4 = ptrtoint ptr %1 to i64
  %5 = ptrtoint ptr %.val18 to i64
  %6 = sub i64 %4, %5
  %7 = sdiv exact i64 %6, 12
  %8 = trunc i64 %7 to i32
  %.val = load i64, ptr %1, align 4
  %9 = trunc i64 %.val to i32
  %10 = and i32 %9, 536870911
  %11 = sub nsw i32 %8, %10
  %12 = lshr i64 %.val, 32
  %13 = trunc nuw i64 %12 to i32
  %14 = and i32 %13, 536870911
  %15 = sub nsw i32 %8, %14
  tail call void @Gia_ManQuantSetSuppZero(ptr noundef %0)
  %.val4.i = load ptr, ptr %3, align 8, !tbaa !30
  %16 = ptrtoint ptr %.val4.i to i64
  %17 = sub i64 %4, %16
  %18 = sdiv exact i64 %17, 12
  %19 = trunc i64 %18 to i32
  %20 = getelementptr i8, ptr %0, i64 980
  %.val.i = load i32, ptr %20, align 4, !tbaa !31
  %21 = getelementptr i8, ptr %0, i64 984
  %.val3.i = load ptr, ptr %21, align 8, !tbaa !32
  %22 = getelementptr i8, ptr %.val3.i, i64 8
  %.val3.val.i = load ptr, ptr %22, align 8, !tbaa !33
  %23 = mul nsw i32 %.val.i, %19
  %24 = sext i32 %23 to i64
  %25 = getelementptr inbounds i64, ptr %.val3.val.i, i64 %24
  %26 = mul nsw i32 %11, %.val.i
  %27 = sext i32 %26 to i64
  %28 = getelementptr inbounds i64, ptr %.val3.val.i, i64 %27
  %29 = mul nsw i32 %15, %.val.i
  %30 = sext i32 %29 to i64
  %31 = getelementptr inbounds i64, ptr %.val3.val.i, i64 %30
  %32 = icmp sgt i32 %.val.i, 0
  br i1 %32, label %.lr.ph.preheader.i, label %Abc_TtOr.exit

.lr.ph.preheader.i:                               ; preds = %2
  %wide.trip.count.i = zext nneg i32 %.val.i to i64
  br label %.lr.ph.i

.lr.ph.i:                                         ; preds = %.lr.ph.i, %.lr.ph.preheader.i
  %indvars.iv.i = phi i64 [ 0, %.lr.ph.preheader.i ], [ %indvars.iv.next.i, %.lr.ph.i ]
  %33 = getelementptr inbounds nuw i64, ptr %28, i64 %indvars.iv.i
  %34 = load i64, ptr %33, align 8, !tbaa !38
  %35 = getelementptr inbounds nuw i64, ptr %31, i64 %indvars.iv.i
  %36 = load i64, ptr %35, align 8, !tbaa !38
  %37 = or i64 %36, %34
  %38 = getelementptr inbounds nuw i64, ptr %25, i64 %indvars.iv.i
  store i64 %37, ptr %38, align 8, !tbaa !38
  %indvars.iv.next.i = add nuw nsw i64 %indvars.iv.i, 1
  %exitcond.not.i = icmp eq i64 %indvars.iv.next.i, %wide.trip.count.i
  br i1 %exitcond.not.i, label %Abc_TtOr.exit, label %.lr.ph.i, !llvm.loop !47

Abc_TtOr.exit:                                    ; preds = %.lr.ph.i, %2
  ret void
}